; ModuleID = '16/393.c'
source_filename = "16/393.c"
target datalayout = "e-m:e-p270:32:32-p271:32:32-p272:64:64-i64:64-f80:128-n8:16:32:64-S128"
target triple = "x86_64-pc-linux-gnu"

@.str = private unnamed_addr constant [4 x i8] c"%ld\00", align 1
@.str.1 = private unnamed_addr constant [11 x i8] c"%d%d%d%d%d\00", align 1
@.str.2 = private unnamed_addr constant [9 x i8] c"%d%d%d%d\00", align 1
@.str.3 = private unnamed_addr constant [7 x i8] c"%d%d%d\00", align 1
@.str.4 = private unnamed_addr constant [5 x i8] c"%d%d\00", align 1
@.str.5 = private unnamed_addr constant [3 x i8] c"%d\00", align 1

; Function Attrs: noinline nounwind uwtable
define dso_local void @main() #0 {
  %1 = alloca i32, align 4
  %2 = alloca i32, align 4
  %3 = alloca i32, align 4
  %4 = alloca i32, align 4
  %5 = alloca i32, align 4
  %6 = alloca i32, align 4
  %7 = alloca i32, align 4
  %8 = alloca i32, align 4
  %9 = alloca i64, align 8
  %10 = call i32 (i8*, ...) @__isoc99_scanf(i8* getelementptr inbounds ([4 x i8], [4 x i8]* @.str, i64 0, i64 0), i64* %9)
  %11 = load i64, i64* %9, align 8
  %12 = sdiv i64 %11, 10000
  %13 = trunc i64 %12 to i32
  store i32 %13, i32* %1, align 4
  %14 = load i64, i64* %9, align 8
  %15 = srem i64 %14, 10000
  %16 = trunc i64 %15 to i32
  store i32 %16, i32* %6, align 4
  %17 = load i32, i32* %6, align 4
  %18 = sdiv i32 %17, 1000
  store i32 %18, i32* %2, align 4
  %19 = load i32, i32* %6, align 4
  %20 = srem i32 %19, 1000
  store i32 %20, i32* %7, align 4
  %21 = load i32, i32* %7, align 4
  %22 = sdiv i32 %21, 100
  store i32 %22, i32* %3, align 4
  %23 = load i32, i32* %7, align 4
  %24 = srem i32 %23, 100
  store i32 %24, i32* %8, align 4
  %25 = load i32, i32* %8, align 4
  %26 = sdiv i32 %25, 10
  store i32 %26, i32* %4, align 4
  %27 = load i32, i32* %8, align 4
  %28 = srem i32 %27, 10
  store i32 %28, i32* %5, align 4
  %29 = load i32, i32* %1, align 4
  %30 = icmp sgt i32 %29, 0
  br i1 %30, label %31, label %38

31:                                               ; preds = %0
  %32 = load i32, i32* %5, align 4
  %33 = load i32, i32* %4, align 4
  %34 = load i32, i32* %3, align 4
  %35 = load i32, i32* %2, align 4
  %36 = load i32, i32* %1, align 4
  %37 = call i32 (i8*, ...) @printf(i8* getelementptr inbounds ([11 x i8], [11 x i8]* @.str.1, i64 0, i64 0), i32 %32, i32 %33, i32 %34, i32 %35, i32 %36)
  br label %68

38:                                               ; preds = %0
  %39 = load i32, i32* %2, align 4
  %40 = icmp sgt i32 %39, 0
  br i1 %40, label %41, label %47

41:                                               ; preds = %38
  %42 = load i32, i32* %5, align 4
  %43 = load i32, i32* %4, align 4
  %44 = load i32, i32* %3, align 4
  %45 = load i32, i32* %2, align 4
  %46 = call i32 (i8*, ...) @printf(i8* getelementptr inbounds ([9 x i8], [9 x i8]* @.str.2, i64 0, i64 0), i32 %42, i32 %43, i32 %44, i32 %45)
  br label %67

47:                                               ; preds = %38
  %48 = load i32, i32* %3, align 4
  %49 = icmp sgt i32 %48, 0
  br i1 %49, label %50, label %55

50:                                               ; preds = %47
  %51 = load i32, i32* %5, align 4
  %52 = load i32, i32* %4, align 4
  %53 = load i32, i32* %3, align 4
  %54 = call i32 (i8*, ...) @printf(i8* getelementptr inbounds ([7 x i8], [7 x i8]* @.str.3, i64 0, i64 0), i32 %51, i32 %52, i32 %53)
  br label %66

55:                                               ; preds = %47
  %56 = load i32, i32* %4, align 4
  %57 = icmp sgt i32 %56, 0
  br i1 %57, label %58, label %62

58:                                               ; preds = %55
  %59 = load i32, i32* %5, align 4
  %60 = load i32, i32* %4, align 4
  %61 = call i32 (i8*, ...) @printf(i8* getelementptr inbounds ([5 x i8], [5 x i8]* @.str.4, i64 0, i64 0), i32 %59, i32 %60)
  br label %65

62:                                               ; preds = %55
  %63 = load i32, i32* %5, align 4
  %64 = call i32 (i8*, ...) @printf(i8* getelementptr inbounds ([3 x i8], [3 x i8]* @.str.5, i64 0, i64 0), i32 %63)
  br label %65

65:                                               ; preds = %62, %58
  br label %66

66:                                               ; preds = %65, %50
  br label %67

67:                                               ; preds = %66, %41
  br label %68

68:                                               ; preds = %67, %31
  ret void
}

declare dso_local i32 @__isoc99_scanf(i8*, ...) #1

declare dso_local i32 @printf(i8*, ...) #1


!llvm.module.flags = !{!0}
!llvm.ident = !{!1}

!0 = !{i32 1, !"wchar_size", i32 4}
!1 = !{!"clang version 10.0.0-4ubuntu1 "}
