; ModuleID = 'source-C-CXX/15/393.c'
source_filename = "source-C-CXX/15/393.c"
target datalayout = "e-m:e-p270:32:32-p271:32:32-p272:64:64-i64:64-f80:128-n8:16:32:64-S128"
target triple = "x86_64-pc-linux-gnu"

@.str = private unnamed_addr constant [4 x i8] c"%ld\00", align 1
@.str.1 = private unnamed_addr constant [11 x i8] c"%d%d%d%d%d\00", align 1
@.str.2 = private unnamed_addr constant [9 x i8] c"%d%d%d%d\00", align 1
@.str.3 = private unnamed_addr constant [7 x i8] c"%d%d%d\00", align 1
@.str.4 = private unnamed_addr constant [5 x i8] c"%d%d\00", align 1
@.str.5 = private unnamed_addr constant [3 x i8] c"%d\00", align 1

; Function Attrs: nofree nounwind sspstrong uwtable
define dso_local void @main() local_unnamed_addr #0 {
  %1 = alloca i64, align 8
  %2 = bitcast i64* %1 to i8*
  call void @llvm.lifetime.start.p0i8(i64 8, i8* nonnull %2) #3
  %3 = call i32 (i8*, ...) @__isoc99_scanf(i8* getelementptr inbounds ([4 x i8], [4 x i8]* @.str, i64 0, i64 0), i64* nonnull %1)
  %4 = load i64, i64* %1, align 8, !tbaa !5
  %5 = sdiv i64 %4, 10000
  %6 = trunc i64 %5 to i32
  %7 = srem i64 %4, 10000
  %8 = trunc i64 %7 to i16
  %9 = sdiv i16 %8, 1000
  %10 = sext i16 %9 to i32
  %11 = srem i16 %8, 1000
  %12 = sdiv i16 %11, 100
  %13 = sext i16 %12 to i32
  %14 = srem i16 %11, 100
  %15 = trunc i16 %14 to i8
  %16 = sdiv i8 %15, 10
  %17 = sext i8 %16 to i32
  %18 = srem i8 %15, 10
  %19 = sext i8 %18 to i32
  %20 = icmp sgt i32 %6, 0
  br i1 %20, label %21, label %23

21:                                               ; preds = %0
  %22 = call i32 (i8*, ...) @printf(i8* nonnull dereferenceable(1) getelementptr inbounds ([11 x i8], [11 x i8]* @.str.1, i64 0, i64 0), i32 %19, i32 %17, i32 %13, i32 %10, i32 %6)
  br label %38

23:                                               ; preds = %0
  %24 = trunc i64 %7 to i32
  %25 = icmp sgt i32 %24, 999
  br i1 %25, label %26, label %28

26:                                               ; preds = %23
  %27 = call i32 (i8*, ...) @printf(i8* nonnull dereferenceable(1) getelementptr inbounds ([9 x i8], [9 x i8]* @.str.2, i64 0, i64 0), i32 %19, i32 %17, i32 %13, i32 %10)
  br label %38

28:                                               ; preds = %23
  %29 = icmp sgt i16 %11, 99
  br i1 %29, label %30, label %32

30:                                               ; preds = %28
  %31 = call i32 (i8*, ...) @printf(i8* nonnull dereferenceable(1) getelementptr inbounds ([7 x i8], [7 x i8]* @.str.3, i64 0, i64 0), i32 %19, i32 %17, i32 %13)
  br label %38

32:                                               ; preds = %28
  %33 = icmp sgt i16 %14, 9
  br i1 %33, label %34, label %36

34:                                               ; preds = %32
  %35 = call i32 (i8*, ...) @printf(i8* nonnull dereferenceable(1) getelementptr inbounds ([5 x i8], [5 x i8]* @.str.4, i64 0, i64 0), i32 %19, i32 %17)
  br label %38

36:                                               ; preds = %32
  %37 = call i32 (i8*, ...) @printf(i8* nonnull dereferenceable(1) getelementptr inbounds ([3 x i8], [3 x i8]* @.str.5, i64 0, i64 0), i32 %19)
  br label %38

38:                                               ; preds = %26, %34, %36, %30, %21
  call void @llvm.lifetime.end.p0i8(i64 8, i8* nonnull %2) #3
  ret void
}

; Function Attrs: argmemonly mustprogress nofree nosync nounwind willreturn
declare void @llvm.lifetime.start.p0i8(i64 immarg, i8* nocapture) #1

; Function Attrs: nofree nounwind
declare noundef i32 @__isoc99_scanf(i8* nocapture noundef readonly, ...) local_unnamed_addr #2

; Function Attrs: nofree nounwind
declare noundef i32 @printf(i8* nocapture noundef readonly, ...) local_unnamed_addr #2

; Function Attrs: argmemonly mustprogress nofree nosync nounwind willreturn
declare void @llvm.lifetime.end.p0i8(i64 immarg, i8* nocapture) #1


!llvm.module.flags = !{!0, !1, !2, !3}
!llvm.ident = !{!4}

!0 = !{i32 1, !"wchar_size", i32 4}
!1 = !{i32 7, !"PIC Level", i32 2}
!2 = !{i32 7, !"PIE Level", i32 2}
!3 = !{i32 7, !"uwtable", i32 1}
!4 = !{!"clang version 13.0.0"}
!5 = !{!6, !6, i64 0}
!6 = !{!"long", !7, i64 0}
!7 = !{!"omnipotent char", !8, i64 0}
!8 = !{!"Simple C/C++ TBAA"}
